; Function Attrs: mustprogress nofree norecurse nosync nounwind willreturn memory(read, inaccessiblemem: none) uwtable
define hidden ptr @_ZNK6params7get_symERK6symbolS2_(ptr nocapture noundef nonnull readonly align 8 dereferenceable(12) %this, ptr nocapture noundef nonnull readonly align 8 dereferenceable(8) %k, ptr nocapture noundef nonnull readonly align 8 dereferenceable(8) %_default) local_unnamed_addr #7 align 2 {
entry:
  %0 = load ptr, ptr %this, align 8
  %cmp.i.i = icmp eq ptr %0, null
  br i1 %cmp.i.i, label %return, label %_ZNK6params5emptyEv.exit

_ZNK6params5emptyEv.exit:                         ; preds = %entry
  %arrayidx.i.i = getelementptr inbounds i8, ptr %0, i64 -4
  %1 = load i32, ptr %arrayidx.i.i, align 4
  %cmp3.i.i = icmp eq i32 %1, 0
  br i1 %cmp3.i.i, label %return, label %for.body.lr.ph

for.body.lr.ph:                                   ; preds = %_ZNK6params5emptyEv.exit
  %2 = zext i32 %1 to i64
  %add.ptr.i = getelementptr inbounds %"struct.std::pair", ptr %0, i64 %2
  %3 = load ptr, ptr %k, align 8
  br label %for.body

for.body:                                         ; preds = %for.body.lr.ph, %for.inc
  %it.012 = phi ptr [ %0, %for.body.lr.ph ], [ %incdec.ptr, %for.inc ]
  %4 = load ptr, ptr %it.012, align 8
  %cmp.i = icmp eq ptr %4, %3
  br i1 %cmp.i, label %land.lhs.true, label %for.inc

land.lhs.true:                                    ; preds = %for.body
  %second = getelementptr inbounds i8, ptr %it.012, i64 8
  %5 = load i32, ptr %second, align 8
  %cmp6 = icmp eq i32 %5, 8
  br i1 %cmp6, label %if.then7, label %for.inc

if.then7:                                         ; preds = %land.lhs.true
  %6 = getelementptr inbounds i8, ptr %it.012, i64 16
  br label %return

for.inc:                                          ; preds = %for.body, %land.lhs.true
  %incdec.ptr = getelementptr inbounds i8, ptr %it.012, i64 24
  %cmp.not = icmp eq ptr %incdec.ptr, %add.ptr.i
  br i1 %cmp.not, label %return, label %for.body, !llvm.loop !29

return:                                           ; preds = %for.inc, %entry, %_ZNK6params5emptyEv.exit, %if.then7
  %retval.sroa.0.0.in = phi ptr [ %6, %if.then7 ], [ %_default, %_ZNK6params5emptyEv.exit ], [ %_default, %entry ], [ %_default, %for.inc ]
  %retval.sroa.0.0 = load ptr, ptr %retval.sroa.0.0.in, align 8
  ret ptr %retval.sroa.0.0
}